; Function Attrs: mustprogress nounwind uwtable
define internal void @_ZNSt6vectorIN12_GLOBAL__N_16gate_tESaIS1_EED2Ev(ptr nocapture noundef nonnull readonly align 8 dereferenceable(24) %0) unnamed_addr #3 align 2 personality ptr @__gxx_personality_v0 {
  %.val = load ptr, ptr %0, align 8
  %.not.i.i = icmp eq ptr %.val, null
  br i1 %.not.i.i, label %_ZNSt12_Vector_baseIN12_GLOBAL__N_16gate_tESaIS1_EED2Ev.exit, label %2

2:                                                ; preds = %1
  tail call void @_ZdlPv(ptr noundef nonnull %.val) #24
  br label %_ZNSt12_Vector_baseIN12_GLOBAL__N_16gate_tESaIS1_EED2Ev.exit

_ZNSt12_Vector_baseIN12_GLOBAL__N_16gate_tESaIS1_EED2Ev.exit: ; preds = %1, %2
  ret void
}